; Function Attrs: mustprogress nofree norecurse nosync nounwind willreturn memory(argmem: readwrite) uwtable
define internal noundef zeroext i1 @"_ZNSt17_Function_handlerIFvRN3nix4SinkEEZNS0_11RemoteStore18addMultipleToStoreERSt6vectorISt4pairINS0_13ValidPathInfoESt10unique_ptrINS0_6SourceESt14default_deleteIS9_EEESaISD_EERNS0_8ActivityENS0_10RepairFlagENS0_13CheckSigsFlagEE3$_0E10_M_managerERSt9_Any_dataRKSN_St18_Manager_operation"(ptr nocapture noundef nonnull writeonly align 8 dereferenceable(16) %0, ptr noundef nonnull align 8 dereferenceable(16) %1, i32 noundef %2) #20 align 2 personality ptr @__gxx_personality_v0 {
  switch i32 %2, label %"_ZNSt14_Function_base13_Base_managerIZN3nix11RemoteStore18addMultipleToStoreERSt6vectorISt4pairINS1_13ValidPathInfoESt10unique_ptrINS1_6SourceESt14default_deleteIS7_EEESaISB_EERNS1_8ActivityENS1_10RepairFlagENS1_13CheckSigsFlagEE3$_0E10_M_managerERSt9_Any_dataRKSL_St18_Manager_operation.exit" [
    i32 0, label %4
    i32 1, label %5
    i32 2, label %6
  ]

4:                                                ; preds = %3
  store ptr @"_ZTIZN3nix11RemoteStore18addMultipleToStoreERSt6vectorISt4pairINS_13ValidPathInfoESt10unique_ptrINS_6SourceESt14default_deleteIS5_EEESaIS9_EERNS_8ActivityENS_10RepairFlagENS_13CheckSigsFlagEE3$_0", ptr %0, align 8
  br label %"_ZNSt14_Function_base13_Base_managerIZN3nix11RemoteStore18addMultipleToStoreERSt6vectorISt4pairINS1_13ValidPathInfoESt10unique_ptrINS1_6SourceESt14default_deleteIS7_EEESaISB_EERNS1_8ActivityENS1_10RepairFlagENS1_13CheckSigsFlagEE3$_0E10_M_managerERSt9_Any_dataRKSL_St18_Manager_operation.exit"

5:                                                ; preds = %3
  store ptr %1, ptr %0, align 8
  br label %"_ZNSt14_Function_base13_Base_managerIZN3nix11RemoteStore18addMultipleToStoreERSt6vectorISt4pairINS1_13ValidPathInfoESt10unique_ptrINS1_6SourceESt14default_deleteIS7_EEESaISB_EERNS1_8ActivityENS1_10RepairFlagENS1_13CheckSigsFlagEE3$_0E10_M_managerERSt9_Any_dataRKSL_St18_Manager_operation.exit"

6:                                                ; preds = %3
  tail call void @llvm.memcpy.p0.p0.i64(ptr noundef nonnull align 8 dereferenceable(16) %0, ptr noundef nonnull align 8 dereferenceable(16) %1, i64 16, i1 false)
  br label %"_ZNSt14_Function_base13_Base_managerIZN3nix11RemoteStore18addMultipleToStoreERSt6vectorISt4pairINS1_13ValidPathInfoESt10unique_ptrINS1_6SourceESt14default_deleteIS7_EEESaISB_EERNS1_8ActivityENS1_10RepairFlagENS1_13CheckSigsFlagEE3$_0E10_M_managerERSt9_Any_dataRKSL_St18_Manager_operation.exit"

"_ZNSt14_Function_base13_Base_managerIZN3nix11RemoteStore18addMultipleToStoreERSt6vectorISt4pairINS1_13ValidPathInfoESt10unique_ptrINS1_6SourceESt14default_deleteIS7_EEESaISB_EERNS1_8ActivityENS1_10RepairFlagENS1_13CheckSigsFlagEE3$_0E10_M_managerERSt9_Any_dataRKSL_St18_Manager_operation.exit": ; preds = %3, %6, %5, %4
  ret i1 false
}